(dp1
S'expInitials'
p2
S''
sS'locationMapping'
p3
VGL
p4
sS'subjCode'
p5
Varocket_103
p6
sS'gender'
p7
Vf
sS'mapping'
p8
VG1
p9
sS'expName'
p10
S'same-gekTalp-noDelay-question-HTEST'
p11
sS'dateStr'
p12
V2017_Jul_13_2048
p13
sS'responseDevice'
p14
S'gamepad'
p15
sS'seed'
p16
I100
sS'order'
p17
S'1'
sS'categoryStructure'
p18
S'CC'
p19
s.